; Function Attrs: nounwind uwtable
define hidden range(i32 0, 2) i32 @SSL_CTX_use_RSAPrivateKey_ASN1(ptr noundef readonly captures(none) %0, ptr noundef %1, i64 noundef %2) local_unnamed_addr #0 {
  %4 = tail call ptr @RSA_private_key_from_bytes(ptr noundef %1, i64 noundef %2) #6
  %5 = icmp eq ptr %4, null
  br i1 %5, label %6, label %7

6:                                                ; preds = %3
  tail call void @ERR_put_error(i32 noundef 16, i32 noundef 0, i32 noundef 12, ptr noundef nonnull @.str, i32 noundef 286) #6
  br label %17

7:                                                ; preds = %3
  %8 = tail call ptr @EVP_PKEY_new() #6
  %9 = icmp eq ptr %8, null
  br i1 %9, label %10, label %11

10:                                               ; preds = %7
  tail call void @ERR_put_error(i32 noundef 16, i32 noundef 0, i32 noundef 6, ptr noundef nonnull @.str, i32 noundef 270) #6
  br label %SSL_CTX_use_RSAPrivateKey.exit

11:                                               ; preds = %7
  %12 = tail call i32 @RSA_up_ref(ptr noundef nonnull %4) #6
  %13 = tail call i32 @EVP_PKEY_assign_RSA(ptr noundef nonnull %8, ptr noundef nonnull %4) #6
  %14 = getelementptr inbounds nuw i8, ptr %0, i64 296
  %15 = load ptr, ptr %14, align 8, !tbaa !49
  %16 = tail call fastcc i32 @ssl_set_pkey(ptr noundef %15, ptr noundef %8)
  tail call void @EVP_PKEY_free(ptr noundef nonnull %8) #6
  br label %SSL_CTX_use_RSAPrivateKey.exit

SSL_CTX_use_RSAPrivateKey.exit:                   ; preds = %10, %11
  %.0.i = phi i32 [ 0, %10 ], [ %16, %11 ]
  tail call void @RSA_free(ptr noundef nonnull %4) #6
  br label %17

17:                                               ; preds = %SSL_CTX_use_RSAPrivateKey.exit, %6
  %.0 = phi i32 [ 0, %6 ], [ %.0.i, %SSL_CTX_use_RSAPrivateKey.exit ]
  ret i32 %.0
}